target datalayout = "e-m:e-p270:32:32-p271:32:32-p272:64:64-i64:64-i128:128-f80:128-n8:16:32:64-S128"
target triple = "x86_64-pc-linux-gnu"

@H5G_init_g = external global i8, align 1
@H5_libterm_g = external global i8, align 1

; Function Attrs: nounwind uwtable
define i32 @H5G_node_close(ptr noundef %0) #0 {
  %2 = alloca ptr, align 8
  store ptr %0, ptr %2, align 8, !tbaa !3
  %3 = load i8, ptr @H5G_init_g, align 1, !tbaa !9, !range !11, !noundef !12
  %4 = trunc i8 %3 to i1
  br i1 %4, label %9, label %5

5:                                                ; preds = %1
  %6 = load i8, ptr @H5_libterm_g, align 1, !tbaa !9, !range !11, !noundef !12
  %7 = trunc i8 %6 to i1
  %8 = xor i1 %7, true
  br label %9

9:                                                ; preds = %5, %1
  %10 = phi i1 [ true, %1 ], [ %8, %5 ]
  %11 = xor i1 %10, true
  %12 = xor i1 %11, true
  %13 = zext i1 %12 to i32
  %14 = sext i32 %13 to i64
  %15 = call i64 @llvm.expect.i64(i64 %14, i64 1)
  %16 = icmp ne i64 %15, 0
  br i1 %16, label %17, label %26

17:                                               ; preds = %9
  %18 = load ptr, ptr %2, align 8, !tbaa !3
  %19 = call ptr @H5F_grp_btree_shared(ptr noundef %18)
  %20 = icmp ne ptr %19, null
  br i1 %20, label %21, label %25

21:                                               ; preds = %17
  %22 = load ptr, ptr %2, align 8, !tbaa !3
  %23 = call ptr @H5F_grp_btree_shared(ptr noundef %22)
  %24 = call i32 @H5UC_decr(ptr noundef %23)
  br label %25

25:                                               ; preds = %21, %17
  br label %26

26:                                               ; preds = %25, %9
  ret i32 0
}