; Function Attrs: nounwind uwtable
define noundef i32 @H5G_node_close(ptr noundef %0) local_unnamed_addr #0 {
  %2 = load i8, ptr @H5G_init_g, align 1, !tbaa !3, !range !7, !noundef !8
  %3 = trunc nuw i8 %2 to i1
  %4 = load i8, ptr @H5_libterm_g, align 1, !range !7
  %5 = trunc nuw i8 %4 to i1
  %6 = xor i1 %5, true
  %7 = select i1 %3, i1 true, i1 %6
  br i1 %7, label %8, label %13, !prof !9

8:                                                ; preds = %1
  %9 = tail call ptr @H5F_grp_btree_shared(ptr noundef %0) #9
  %.not = icmp eq ptr %9, null
  br i1 %.not, label %13, label %10

10:                                               ; preds = %8
  %11 = tail call ptr @H5F_grp_btree_shared(ptr noundef %0) #9
  %12 = tail call i32 @H5UC_decr(ptr noundef %11) #9
  br label %13

13:                                               ; preds = %8, %10, %1
  ret i32 0
}